target datalayout = "e-m:e-p270:32:32-p271:32:32-p272:64:64-i64:64-i128:128-f80:128-n8:16:32:64-S128"
target triple = "x86_64-pc-linux-gnu"

%struct.stats_t = type { double, double, double, i32, i32, i32 }
%struct.info_t = type { ptr, i16, ptr, i32, i32, i32, i32, i32, i32, i32, %struct.side_t, %struct.side_t, i32, %struct.memBuf_t, %struct.memBuf_t, i32, %struct.stats_t, %struct.stats_t }
%struct.side_t = type { i32, i32, i32 }
%struct.memBuf_t = type { [16486 x i8], i32, i32, i32, i32, %struct.COND_TYPE, i32 }
%struct.COND_TYPE = type { %union.pthread_mutex_t, %union.pthread_cond_t }
%union.pthread_mutex_t = type { %struct.__pthread_mutex_s }
%struct.__pthread_mutex_s = type { i32, i32, i32, i32, i32, i16, i16, %struct.__pthread_internal_list }
%struct.__pthread_internal_list = type { ptr, ptr }
%union.pthread_cond_t = type { %struct.__pthread_cond_s }
%struct.__pthread_cond_s = type { %union.__atomic_wide_counter, %union.__atomic_wide_counter, [2 x i32], [2 x i32], i32, i32, [2 x i32] }
%union.__atomic_wide_counter = type { i64 }

@stderr = external global ptr, align 8
@.str.7 = private unnamed_addr constant [26 x i8] c"%s L%d error %d for \22%s\22\0A\00", align 1
@.str.8 = private unnamed_addr constant [124 x i8] c"generated/home/dtcxzyw/WorkSpace/Projects/compilers/llvm-opt-benchmark/bench/wolfssl/wolfssl/examples/benchmark/tls_bench.c\00", align 1
@.str.10 = private unnamed_addr constant [19 x i8] c"thread call failed\00", align 1
@.str.96 = private unnamed_addr constant [41 x i8] c"wolfSSL_CondStart(&info->to_server.cond)\00", align 1
@.str.97 = private unnamed_addr constant [33 x i8] c"ClientMemSend overflow %d %d %d\0A\00", align 1
@.str.98 = private unnamed_addr constant [39 x i8] c"wolfSSL_CondEnd(&info->to_server.cond)\00", align 1
@.str.99 = private unnamed_addr constant [42 x i8] c"wolfSSL_CondSignal(&info->to_server.cond)\00", align 1

; Function Attrs: nounwind uwtable
define internal i32 @SocketSend(i32 noundef %0, ptr noundef %1, i32 noundef %2) #0 {
  %4 = alloca i32, align 4
  %5 = alloca i32, align 4
  %6 = alloca ptr, align 8
  %7 = alloca i32, align 4
  %8 = alloca i32, align 4
  %9 = alloca i32, align 4
  store i32 %0, ptr %5, align 4, !tbaa !8
  store ptr %1, ptr %6, align 8, !tbaa !10
  store i32 %2, ptr %7, align 4, !tbaa !8
  call void @llvm.lifetime.start.p0(i64 4, ptr %8) #12
  %10 = load i32, ptr %5, align 4, !tbaa !8
  %11 = load ptr, ptr %6, align 8, !tbaa !10
  %12 = load i32, ptr %7, align 4, !tbaa !8
  %13 = sext i32 %12 to i64
  %14 = call i64 @send(i32 noundef %10, ptr noundef %11, i64 noundef %13, i32 noundef 0)
  %15 = trunc i64 %14 to i32
  store i32 %15, ptr %8, align 4, !tbaa !8
  %16 = load i32, ptr %8, align 4, !tbaa !8
  %17 = icmp eq i32 %16, -1
  br i1 %17, label %18, label %26

18:                                               ; preds = %3
  %19 = call ptr @__errno_location() #14
  %20 = load i32, ptr %19, align 4, !tbaa !8
  switch i32 %20, label %25 [
    i32 11, label %21
    i32 104, label %22
    i32 4, label %23
    i32 32, label %24
  ]

21:                                               ; preds = %18
  store i32 -2, ptr %4, align 4
  store i32 1, ptr %9, align 4
  br label %33

22:                                               ; preds = %18
  store i32 -3, ptr %4, align 4
  store i32 1, ptr %9, align 4
  br label %33

23:                                               ; preds = %18
  store i32 -4, ptr %4, align 4
  store i32 1, ptr %9, align 4
  br label %33

24:                                               ; preds = %18
  store i32 -5, ptr %4, align 4
  store i32 1, ptr %9, align 4
  br label %33

25:                                               ; preds = %18
  store i32 -1, ptr %4, align 4
  store i32 1, ptr %9, align 4
  br label %33

26:                                               ; preds = %3
  %27 = load i32, ptr %8, align 4, !tbaa !8
  %28 = icmp eq i32 %27, 0
  br i1 %28, label %29, label %30

29:                                               ; preds = %26
  store i32 0, ptr %4, align 4
  store i32 1, ptr %9, align 4
  br label %33

30:                                               ; preds = %26
  br label %31

31:                                               ; preds = %30
  %32 = load i32, ptr %8, align 4, !tbaa !8
  store i32 %32, ptr %4, align 4
  store i32 1, ptr %9, align 4
  br label %33

33:                                               ; preds = %31, %29, %25, %24, %23, %22, %21
  call void @llvm.lifetime.end.p0(i64 4, ptr %8) #12
  %34 = load i32, ptr %4, align 4
  ret i32 %34
}

; Function Attrs: nounwind uwtable
define internal i32 @ClientMemSend(ptr noundef %0, ptr noundef %1, i32 noundef %2) #0 {
  %4 = alloca i32, align 4
  %5 = alloca ptr, align 8
  %6 = alloca ptr, align 8
  %7 = alloca i32, align 4
  %8 = alloca i32, align 4
  %9 = alloca i32, align 4
  %10 = alloca i32, align 4
  %11 = alloca i32, align 4
  store ptr %0, ptr %5, align 8, !tbaa !4
  store ptr %1, ptr %6, align 8, !tbaa !10
  store i32 %2, ptr %7, align 4, !tbaa !8
  br label %12

12:                                               ; preds = %3
  call void @llvm.lifetime.start.p0(i64 4, ptr %8) #12
  %13 = load ptr, ptr %5, align 8, !tbaa !4
  %14 = getelementptr inbounds nuw %struct.info_t, ptr %13, i32 0, i32 13
  %15 = getelementptr inbounds nuw %struct.memBuf_t, ptr %14, i32 0, i32 5
  %16 = call i32 @wolfSSL_CondStart(ptr noundef %15)
  store i32 %16, ptr %8, align 4, !tbaa !8
  %17 = load i32, ptr %8, align 4, !tbaa !8
  %18 = icmp ne i32 %17, 0
  br i1 %18, label %19, label %25

19:                                               ; preds = %12
  %20 = load i32, ptr %8, align 4, !tbaa !8
  %21 = call ptr @__errno_location() #14
  store i32 %20, ptr %21, align 4, !tbaa !8
  %22 = load ptr, ptr @stderr, align 8, !tbaa !20
  %23 = load i32, ptr %8, align 4, !tbaa !8
  %24 = call i32 (ptr, ptr, ...) @fprintf(ptr noundef %22, ptr noundef @.str.7, ptr noundef @.str.8, i32 noundef 513, i32 noundef %23, ptr noundef @.str.96) #12
  call void @err_sys(ptr noundef @.str.10) #15
  unreachable

25:                                               ; preds = %12
  call void @llvm.lifetime.end.p0(i64 4, ptr %8) #12
  br label %26

26:                                               ; preds = %25
  %27 = load ptr, ptr %5, align 8, !tbaa !4
  %28 = getelementptr inbounds nuw %struct.info_t, ptr %27, i32 0, i32 13
  %29 = getelementptr inbounds nuw %struct.memBuf_t, ptr %28, i32 0, i32 2
  %30 = load i32, ptr %29, align 4, !tbaa !108
  %31 = load i32, ptr %7, align 4, !tbaa !8
  %32 = add nsw i32 %30, %31
  %33 = icmp sgt i32 %32, 16486
  br i1 %33, label %34, label %57

34:                                               ; preds = %26
  %35 = load ptr, ptr @stderr, align 8, !tbaa !20
  %36 = load ptr, ptr %5, align 8, !tbaa !4
  %37 = getelementptr inbounds nuw %struct.info_t, ptr %36, i32 0, i32 13
  %38 = getelementptr inbounds nuw %struct.memBuf_t, ptr %37, i32 0, i32 2
  %39 = load i32, ptr %38, align 4, !tbaa !108
  %40 = load i32, ptr %7, align 4, !tbaa !8
  %41 = call i32 (ptr, ptr, ...) @fprintf(ptr noundef %35, ptr noundef @.str.97, i32 noundef %39, i32 noundef %40, i32 noundef 16486) #12
  br label %42

42:                                               ; preds = %34
  call void @llvm.lifetime.start.p0(i64 4, ptr %9) #12
  %43 = load ptr, ptr %5, align 8, !tbaa !4
  %44 = getelementptr inbounds nuw %struct.info_t, ptr %43, i32 0, i32 13
  %45 = getelementptr inbounds nuw %struct.memBuf_t, ptr %44, i32 0, i32 5
  %46 = call i32 @wolfSSL_CondEnd(ptr noundef %45)
  store i32 %46, ptr %9, align 4, !tbaa !8
  %47 = load i32, ptr %9, align 4, !tbaa !8
  %48 = icmp ne i32 %47, 0
  br i1 %48, label %49, label %55

49:                                               ; preds = %42
  %50 = load i32, ptr %9, align 4, !tbaa !8
  %51 = call ptr @__errno_location() #14
  store i32 %50, ptr %51, align 4, !tbaa !8
  %52 = load ptr, ptr @stderr, align 8, !tbaa !20
  %53 = load i32, ptr %9, align 4, !tbaa !8
  %54 = call i32 (ptr, ptr, ...) @fprintf(ptr noundef %52, ptr noundef @.str.7, ptr noundef @.str.8, i32 noundef 520, i32 noundef %53, ptr noundef @.str.98) #12
  call void @err_sys(ptr noundef @.str.10) #15
  unreachable

55:                                               ; preds = %42
  call void @llvm.lifetime.end.p0(i64 4, ptr %9) #12
  br label %56

56:                                               ; preds = %55
  store i32 -1, ptr %4, align 4
  br label %113

57:                                               ; preds = %26
  %58 = load ptr, ptr %5, align 8, !tbaa !4
  %59 = getelementptr inbounds nuw %struct.info_t, ptr %58, i32 0, i32 13
  %60 = getelementptr inbounds nuw %struct.memBuf_t, ptr %59, i32 0, i32 0
  %61 = load ptr, ptr %5, align 8, !tbaa !4
  %62 = getelementptr inbounds nuw %struct.info_t, ptr %61, i32 0, i32 13
  %63 = getelementptr inbounds nuw %struct.memBuf_t, ptr %62, i32 0, i32 2
  %64 = load i32, ptr %63, align 4, !tbaa !108
  %65 = sext i32 %64 to i64
  %66 = getelementptr inbounds [16486 x i8], ptr %60, i64 0, i64 %65
  %67 = load ptr, ptr %6, align 8, !tbaa !10
  %68 = load i32, ptr %7, align 4, !tbaa !8
  %69 = sext i32 %68 to i64
  call void @llvm.memcpy.p0.p0.i64(ptr align 1 %66, ptr align 1 %67, i64 %69, i1 false)
  %70 = load i32, ptr %7, align 4, !tbaa !8
  %71 = load ptr, ptr %5, align 8, !tbaa !4
  %72 = getelementptr inbounds nuw %struct.info_t, ptr %71, i32 0, i32 13
  %73 = getelementptr inbounds nuw %struct.memBuf_t, ptr %72, i32 0, i32 2
  %74 = load i32, ptr %73, align 4, !tbaa !108
  %75 = add nsw i32 %74, %70
  store i32 %75, ptr %73, align 4, !tbaa !108
  %76 = load i32, ptr %7, align 4, !tbaa !8
  %77 = load ptr, ptr %5, align 8, !tbaa !4
  %78 = getelementptr inbounds nuw %struct.info_t, ptr %77, i32 0, i32 13
  %79 = getelementptr inbounds nuw %struct.memBuf_t, ptr %78, i32 0, i32 1
  %80 = load i32, ptr %79, align 8, !tbaa !109
  %81 = add nsw i32 %80, %76
  store i32 %81, ptr %79, align 8, !tbaa !109
  br label %82

82:                                               ; preds = %57
  call void @llvm.lifetime.start.p0(i64 4, ptr %10) #12
  %83 = load ptr, ptr %5, align 8, !tbaa !4
  %84 = getelementptr inbounds nuw %struct.info_t, ptr %83, i32 0, i32 13
  %85 = getelementptr inbounds nuw %struct.memBuf_t, ptr %84, i32 0, i32 5
  %86 = call i32 @wolfSSL_CondSignal(ptr noundef %85)
  store i32 %86, ptr %10, align 4, !tbaa !8
  %87 = load i32, ptr %10, align 4, !tbaa !8
  %88 = icmp ne i32 %87, 0
  br i1 %88, label %89, label %95

89:                                               ; preds = %82
  %90 = load i32, ptr %10, align 4, !tbaa !8
  %91 = call ptr @__errno_location() #14
  store i32 %90, ptr %91, align 4, !tbaa !8
  %92 = load ptr, ptr @stderr, align 8, !tbaa !20
  %93 = load i32, ptr %10, align 4, !tbaa !8
  %94 = call i32 (ptr, ptr, ...) @fprintf(ptr noundef %92, ptr noundef @.str.7, ptr noundef @.str.8, i32 noundef 533, i32 noundef %93, ptr noundef @.str.99) #12
  call void @err_sys(ptr noundef @.str.10) #15
  unreachable

95:                                               ; preds = %82
  call void @llvm.lifetime.end.p0(i64 4, ptr %10) #12
  br label %96

96:                                               ; preds = %95
  br label %97

97:                                               ; preds = %96
  call void @llvm.lifetime.start.p0(i64 4, ptr %11) #12
  %98 = load ptr, ptr %5, align 8, !tbaa !4
  %99 = getelementptr inbounds nuw %struct.info_t, ptr %98, i32 0, i32 13
  %100 = getelementptr inbounds nuw %struct.memBuf_t, ptr %99, i32 0, i32 5
  %101 = call i32 @wolfSSL_CondEnd(ptr noundef %100)
  store i32 %101, ptr %11, align 4, !tbaa !8
  %102 = load i32, ptr %11, align 4, !tbaa !8
  %103 = icmp ne i32 %102, 0
  br i1 %103, label %104, label %110

104:                                              ; preds = %97
  %105 = load i32, ptr %11, align 4, !tbaa !8
  %106 = call ptr @__errno_location() #14
  store i32 %105, ptr %106, align 4, !tbaa !8
  %107 = load ptr, ptr @stderr, align 8, !tbaa !20
  %108 = load i32, ptr %11, align 4, !tbaa !8
  %109 = call i32 (ptr, ptr, ...) @fprintf(ptr noundef %107, ptr noundef @.str.7, ptr noundef @.str.8, i32 noundef 534, i32 noundef %108, ptr noundef @.str.98) #12
  call void @err_sys(ptr noundef @.str.10) #15
  unreachable

110:                                              ; preds = %97
  call void @llvm.lifetime.end.p0(i64 4, ptr %11) #12
  br label %111

111:                                              ; preds = %110
  %112 = load i32, ptr %7, align 4, !tbaa !8
  store i32 %112, ptr %4, align 4
  br label %113

113:                                              ; preds = %111, %56
  %114 = load i32, ptr %4, align 4
  ret i32 %114
}

; Function Attrs: nounwind uwtable
define internal i32 @ClientSend(ptr noundef %0, ptr noundef %1, i32 noundef %2, ptr noundef %3) #0 {
  %5 = alloca i32, align 4
  %6 = alloca ptr, align 8
  %7 = alloca ptr, align 8
  %8 = alloca i32, align 4
  %9 = alloca ptr, align 8
  %10 = alloca ptr, align 8
  %11 = alloca i32, align 4
  store ptr %0, ptr %6, align 8, !tbaa !78
  store ptr %1, ptr %7, align 8, !tbaa !10
  store i32 %2, ptr %8, align 4, !tbaa !8
  store ptr %3, ptr %9, align 8, !tbaa !4
  call void @llvm.lifetime.start.p0(i64 8, ptr %10) #12
  %12 = load ptr, ptr %9, align 8, !tbaa !4
  store ptr %12, ptr %10, align 8, !tbaa !4
  %13 = load ptr, ptr %10, align 8, !tbaa !4
  %14 = getelementptr inbounds nuw %struct.info_t, ptr %13, i32 0, i32 12
  %15 = load i32, ptr %14, align 4, !tbaa !48
  %16 = icmp ne i32 %15, 0
  br i1 %16, label %17, label %22

17:                                               ; preds = %4
  %18 = load ptr, ptr %10, align 8, !tbaa !4
  %19 = load ptr, ptr %7, align 8, !tbaa !10
  %20 = load i32, ptr %8, align 4, !tbaa !8
  %21 = call i32 @ClientMemSend(ptr noundef %18, ptr noundef %19, i32 noundef %20)
  store i32 %21, ptr %5, align 4
  store i32 1, ptr %11, align 4
  br label %30

22:                                               ; preds = %4
  %23 = load ptr, ptr %10, align 8, !tbaa !4
  %24 = getelementptr inbounds nuw %struct.info_t, ptr %23, i32 0, i32 10
  %25 = getelementptr inbounds nuw %struct.side_t, ptr %24, i32 0, i32 1
  %26 = load i32, ptr %25, align 4, !tbaa !45
  %27 = load ptr, ptr %7, align 8, !tbaa !10
  %28 = load i32, ptr %8, align 4, !tbaa !8
  %29 = call i32 @SocketSend(i32 noundef %26, ptr noundef %27, i32 noundef %28)
  store i32 %29, ptr %5, align 4
  store i32 1, ptr %11, align 4
  br label %30

30:                                               ; preds = %22, %17
  call void @llvm.lifetime.end.p0(i64 8, ptr %10) #12
  %31 = load i32, ptr %5, align 4
  ret i32 %31
}