; Function Attrs: nounwind uwtable
define internal noundef i32 @ClientSend(ptr readnone captures(none) %0, ptr noundef %1, i32 noundef %2, ptr noundef %3) #0 {
  %5 = getelementptr inbounds nuw i8, ptr %3, i64 76
  %6 = load i32, ptr %5, align 4, !tbaa !46
  %.not = icmp eq i32 %6, 0
  br i1 %.not, label %48, label %7

7:                                                ; preds = %4
  %8 = getelementptr inbounds nuw i8, ptr %3, i64 80
  %9 = getelementptr inbounds nuw i8, ptr %3, i64 16584
  %10 = tail call i32 @wolfSSL_CondStart(ptr noundef nonnull %9) #17
  %.not.i = icmp eq i32 %10, 0
  br i1 %.not.i, label %15, label %11

11:                                               ; preds = %7
  %12 = tail call ptr @__errno_location() #21
  store i32 %10, ptr %12, align 4, !tbaa !4
  %13 = load ptr, ptr @stderr, align 8, !tbaa !19
  %14 = tail call i32 (ptr, ptr, ...) @fprintf(ptr noundef %13, ptr noundef nonnull @.str.7, ptr noundef nonnull @.str.8, i32 noundef 513, i32 noundef %10, ptr noundef nonnull @.str.96) #18
  tail call fastcc void @err_sys(ptr noundef nonnull @.str.10) #22
  unreachable

15:                                               ; preds = %7
  %16 = getelementptr inbounds nuw i8, ptr %3, i64 16572
  %17 = load i32, ptr %16, align 4, !tbaa !91
  %18 = add nsw i32 %17, %2
  %19 = icmp sgt i32 %18, 16486
  br i1 %19, label %20, label %28

20:                                               ; preds = %15
  %21 = load ptr, ptr @stderr, align 8, !tbaa !19
  %22 = tail call i32 (ptr, ptr, ...) @fprintf(ptr noundef %21, ptr noundef nonnull @.str.97, i32 noundef %17, i32 noundef %2, i32 noundef 16486) #18
  %23 = tail call i32 @wolfSSL_CondEnd(ptr noundef nonnull %9) #17
  %.not35.i = icmp eq i32 %23, 0
  br i1 %.not35.i, label %ClientMemSend.exit, label %24

24:                                               ; preds = %20
  %25 = tail call ptr @__errno_location() #21
  store i32 %23, ptr %25, align 4, !tbaa !4
  %26 = load ptr, ptr @stderr, align 8, !tbaa !19
  %27 = tail call i32 (ptr, ptr, ...) @fprintf(ptr noundef %26, ptr noundef nonnull @.str.7, ptr noundef nonnull @.str.8, i32 noundef 520, i32 noundef %23, ptr noundef nonnull @.str.98) #18
  tail call fastcc void @err_sys(ptr noundef nonnull @.str.10) #22
  unreachable

28:                                               ; preds = %15
  %29 = sext i32 %17 to i64
  %30 = getelementptr inbounds [16486 x i8], ptr %8, i64 0, i64 %29
  %31 = sext i32 %2 to i64
  tail call void @llvm.memcpy.p0.p0.i64(ptr nonnull align 1 %30, ptr readonly align 1 %1, i64 %31, i1 false)
  %32 = load i32, ptr %16, align 4, !tbaa !91
  %33 = add nsw i32 %32, %2
  store i32 %33, ptr %16, align 4, !tbaa !91
  %34 = getelementptr inbounds nuw i8, ptr %3, i64 16568
  %35 = load i32, ptr %34, align 8, !tbaa !92
  %36 = add nsw i32 %35, %2
  store i32 %36, ptr %34, align 8, !tbaa !92
  %37 = tail call i32 @wolfSSL_CondSignal(ptr noundef nonnull %9) #17
  %.not33.i = icmp eq i32 %37, 0
  br i1 %.not33.i, label %42, label %38

38:                                               ; preds = %28
  %39 = tail call ptr @__errno_location() #21
  store i32 %37, ptr %39, align 4, !tbaa !4
  %40 = load ptr, ptr @stderr, align 8, !tbaa !19
  %41 = tail call i32 (ptr, ptr, ...) @fprintf(ptr noundef %40, ptr noundef nonnull @.str.7, ptr noundef nonnull @.str.8, i32 noundef 533, i32 noundef %37, ptr noundef nonnull @.str.99) #18
  tail call fastcc void @err_sys(ptr noundef nonnull @.str.10) #22
  unreachable

42:                                               ; preds = %28
  %43 = tail call i32 @wolfSSL_CondEnd(ptr noundef nonnull %9) #17
  %.not34.i = icmp eq i32 %43, 0
  br i1 %.not34.i, label %ClientMemSend.exit, label %44

44:                                               ; preds = %42
  %45 = tail call ptr @__errno_location() #21
  store i32 %43, ptr %45, align 4, !tbaa !4
  %46 = load ptr, ptr @stderr, align 8, !tbaa !19
  %47 = tail call i32 (ptr, ptr, ...) @fprintf(ptr noundef %46, ptr noundef nonnull @.str.7, ptr noundef nonnull @.str.8, i32 noundef 534, i32 noundef %43, ptr noundef nonnull @.str.98) #18
  tail call fastcc void @err_sys(ptr noundef nonnull @.str.10) #22
  unreachable

48:                                               ; preds = %4
  %49 = getelementptr inbounds nuw i8, ptr %3, i64 56
  %50 = load i32, ptr %49, align 4, !tbaa !43
  %51 = sext i32 %2 to i64
  %52 = tail call i64 @send(i32 noundef %50, ptr noundef %1, i64 noundef %51, i32 noundef 0) #17
  %53 = trunc i64 %52 to i32
  %cond = icmp eq i32 %53, -1
  br i1 %cond, label %54, label %ClientMemSend.exit

54:                                               ; preds = %48
  %55 = tail call ptr @__errno_location() #21
  %56 = load i32, ptr %55, align 4, !tbaa !4
  switch i32 %56, label %60 [
    i32 11, label %ClientMemSend.exit
    i32 104, label %57
    i32 4, label %58
    i32 32, label %59
  ]

57:                                               ; preds = %54
  br label %ClientMemSend.exit

58:                                               ; preds = %54
  br label %ClientMemSend.exit

59:                                               ; preds = %54
  br label %ClientMemSend.exit

60:                                               ; preds = %54
  br label %ClientMemSend.exit

ClientMemSend.exit:                               ; preds = %48, %60, %59, %58, %57, %54, %42, %20
  %.0 = phi i32 [ -1, %20 ], [ %2, %42 ], [ -1, %60 ], [ -5, %59 ], [ -4, %58 ], [ -3, %57 ], [ -2, %54 ], [ %53, %48 ]
  ret i32 %.0
}